; Function Attrs: nounwind uwtable
define dso_local void @sigchain_push_common(ptr noundef %0) local_unnamed_addr #0 {
  %2 = load i32, ptr getelementptr inbounds nuw (i8, ptr @signals, i64 40), align 8, !tbaa !4
  %3 = load i32, ptr getelementptr inbounds nuw (i8, ptr @signals, i64 44), align 4, !tbaa !10
  %.not.i = icmp slt i32 %2, %3
  br i1 %.not.i, label %15, label %4

4:                                                ; preds = %1
  %5 = add nsw i32 %2, 1
  %6 = mul i32 %3, 3
  %7 = add i32 %6, 48
  %8 = sdiv i32 %7, 2
  %.not23.i = icmp sgt i32 %8, %2
  %..i = select i1 %.not23.i, i32 %8, i32 %5
  store i32 %..i, ptr getelementptr inbounds nuw (i8, ptr @signals, i64 44), align 4, !tbaa !10
  %9 = sext i32 %..i to i64
  %10 = icmp slt i32 %..i, 0
  br i1 %10, label %11, label %st_mult.exit.i

11:                                               ; preds = %4
  tail call void (ptr, ...) @die(ptr noundef nonnull @.str.2, i64 noundef 8, i64 noundef range(i64 -2147483648, 2147483648) %9) #4
  unreachable

st_mult.exit.i:                                   ; preds = %4
  %12 = load ptr, ptr getelementptr inbounds nuw (i8, ptr @signals, i64 32), align 16, !tbaa !11
  %13 = shl nuw nsw i64 %9, 3
  %14 = tail call ptr @xrealloc(ptr noundef %12, i64 noundef %13) #5
  store ptr %14, ptr getelementptr inbounds nuw (i8, ptr @signals, i64 32), align 16, !tbaa !11
  br label %15

15:                                               ; preds = %st_mult.exit.i, %1
  %16 = tail call ptr @signal(i32 noundef 2, ptr noundef %0) #5
  %17 = load ptr, ptr getelementptr inbounds nuw (i8, ptr @signals, i64 32), align 16, !tbaa !11
  %18 = load i32, ptr getelementptr inbounds nuw (i8, ptr @signals, i64 40), align 8, !tbaa !4
  %19 = sext i32 %18 to i64
  %20 = getelementptr inbounds ptr, ptr %17, i64 %19
  store ptr %16, ptr %20, align 8, !tbaa !12
  %21 = icmp eq ptr %16, inttoptr (i64 -1 to ptr)
  br i1 %21, label %sigchain_push.exit, label %22

22:                                               ; preds = %15
  %23 = add nsw i32 %18, 1
  store i32 %23, ptr getelementptr inbounds nuw (i8, ptr @signals, i64 40), align 8, !tbaa !4
  br label %sigchain_push.exit

sigchain_push.exit:                               ; preds = %15, %22
  %24 = load i32, ptr getelementptr inbounds nuw (i8, ptr @signals, i64 24), align 8, !tbaa !4
  %25 = load i32, ptr getelementptr inbounds nuw (i8, ptr @signals, i64 28), align 4, !tbaa !10
  %.not.i5 = icmp slt i32 %24, %25
  br i1 %.not.i5, label %37, label %26

26:                                               ; preds = %sigchain_push.exit
  %27 = add nsw i32 %24, 1
  %28 = mul i32 %25, 3
  %29 = add i32 %28, 48
  %30 = sdiv i32 %29, 2
  %.not23.i6 = icmp sgt i32 %30, %24
  %..i7 = select i1 %.not23.i6, i32 %30, i32 %27
  store i32 %..i7, ptr getelementptr inbounds nuw (i8, ptr @signals, i64 28), align 4, !tbaa !10
  %31 = sext i32 %..i7 to i64
  %32 = icmp slt i32 %..i7, 0
  br i1 %32, label %33, label %st_mult.exit.i8

33:                                               ; preds = %26
  tail call void (ptr, ...) @die(ptr noundef nonnull @.str.2, i64 noundef 8, i64 noundef range(i64 -2147483648, 2147483648) %31) #4
  unreachable

st_mult.exit.i8:                                  ; preds = %26
  %34 = load ptr, ptr getelementptr inbounds nuw (i8, ptr @signals, i64 16), align 16, !tbaa !11
  %35 = shl nuw nsw i64 %31, 3
  %36 = tail call ptr @xrealloc(ptr noundef %34, i64 noundef %35) #5
  store ptr %36, ptr getelementptr inbounds nuw (i8, ptr @signals, i64 16), align 16, !tbaa !11
  br label %37

37:                                               ; preds = %st_mult.exit.i8, %sigchain_push.exit
  %38 = tail call ptr @signal(i32 noundef 1, ptr noundef %0) #5
  %39 = load ptr, ptr getelementptr inbounds nuw (i8, ptr @signals, i64 16), align 16, !tbaa !11
  %40 = load i32, ptr getelementptr inbounds nuw (i8, ptr @signals, i64 24), align 8, !tbaa !4
  %41 = sext i32 %40 to i64
  %42 = getelementptr inbounds ptr, ptr %39, i64 %41
  store ptr %38, ptr %42, align 8, !tbaa !12
  %43 = icmp eq ptr %38, inttoptr (i64 -1 to ptr)
  br i1 %43, label %sigchain_push.exit10, label %44

44:                                               ; preds = %37
  %45 = add nsw i32 %40, 1
  store i32 %45, ptr getelementptr inbounds nuw (i8, ptr @signals, i64 24), align 8, !tbaa !4
  br label %sigchain_push.exit10

sigchain_push.exit10:                             ; preds = %37, %44
  %46 = load i32, ptr getelementptr inbounds nuw (i8, ptr @signals, i64 248), align 8, !tbaa !4
  %47 = load i32, ptr getelementptr inbounds nuw (i8, ptr @signals, i64 252), align 4, !tbaa !10
  %.not.i11 = icmp slt i32 %46, %47
  br i1 %.not.i11, label %59, label %48

48:                                               ; preds = %sigchain_push.exit10
  %49 = add nsw i32 %46, 1
  %50 = mul i32 %47, 3
  %51 = add i32 %50, 48
  %52 = sdiv i32 %51, 2
  %.not23.i12 = icmp sgt i32 %52, %46
  %..i13 = select i1 %.not23.i12, i32 %52, i32 %49
  store i32 %..i13, ptr getelementptr inbounds nuw (i8, ptr @signals, i64 252), align 4, !tbaa !10
  %53 = sext i32 %..i13 to i64
  %54 = icmp slt i32 %..i13, 0
  br i1 %54, label %55, label %st_mult.exit.i14

55:                                               ; preds = %48
  tail call void (ptr, ...) @die(ptr noundef nonnull @.str.2, i64 noundef 8, i64 noundef range(i64 -2147483648, 2147483648) %53) #4
  unreachable

st_mult.exit.i14:                                 ; preds = %48
  %56 = load ptr, ptr getelementptr inbounds nuw (i8, ptr @signals, i64 240), align 16, !tbaa !11
  %57 = shl nuw nsw i64 %53, 3
  %58 = tail call ptr @xrealloc(ptr noundef %56, i64 noundef %57) #5
  store ptr %58, ptr getelementptr inbounds nuw (i8, ptr @signals, i64 240), align 16, !tbaa !11
  br label %59

59:                                               ; preds = %st_mult.exit.i14, %sigchain_push.exit10
  %60 = tail call ptr @signal(i32 noundef 15, ptr noundef %0) #5
  %61 = load ptr, ptr getelementptr inbounds nuw (i8, ptr @signals, i64 240), align 16, !tbaa !11
  %62 = load i32, ptr getelementptr inbounds nuw (i8, ptr @signals, i64 248), align 8, !tbaa !4
  %63 = sext i32 %62 to i64
  %64 = getelementptr inbounds ptr, ptr %61, i64 %63
  store ptr %60, ptr %64, align 8, !tbaa !12
  %65 = icmp eq ptr %60, inttoptr (i64 -1 to ptr)
  br i1 %65, label %sigchain_push.exit16, label %66

66:                                               ; preds = %59
  %67 = add nsw i32 %62, 1
  store i32 %67, ptr getelementptr inbounds nuw (i8, ptr @signals, i64 248), align 8, !tbaa !4
  br label %sigchain_push.exit16

sigchain_push.exit16:                             ; preds = %59, %66
  %68 = load i32, ptr getelementptr inbounds nuw (i8, ptr @signals, i64 56), align 8, !tbaa !4
  %69 = load i32, ptr getelementptr inbounds nuw (i8, ptr @signals, i64 60), align 4, !tbaa !10
  %.not.i17 = icmp slt i32 %68, %69
  br i1 %.not.i17, label %81, label %70

70:                                               ; preds = %sigchain_push.exit16
  %71 = add nsw i32 %68, 1
  %72 = mul i32 %69, 3
  %73 = add i32 %72, 48
  %74 = sdiv i32 %73, 2
  %.not23.i18 = icmp sgt i32 %74, %68
  %..i19 = select i1 %.not23.i18, i32 %74, i32 %71
  store i32 %..i19, ptr getelementptr inbounds nuw (i8, ptr @signals, i64 60), align 4, !tbaa !10
  %75 = sext i32 %..i19 to i64
  %76 = icmp slt i32 %..i19, 0
  br i1 %76, label %77, label %st_mult.exit.i20

77:                                               ; preds = %70
  tail call void (ptr, ...) @die(ptr noundef nonnull @.str.2, i64 noundef 8, i64 noundef range(i64 -2147483648, 2147483648) %75) #4
  unreachable

st_mult.exit.i20:                                 ; preds = %70
  %78 = load ptr, ptr getelementptr inbounds nuw (i8, ptr @signals, i64 48), align 16, !tbaa !11
  %79 = shl nuw nsw i64 %75, 3
  %80 = tail call ptr @xrealloc(ptr noundef %78, i64 noundef %79) #5
  store ptr %80, ptr getelementptr inbounds nuw (i8, ptr @signals, i64 48), align 16, !tbaa !11
  br label %81

81:                                               ; preds = %st_mult.exit.i20, %sigchain_push.exit16
  %82 = tail call ptr @signal(i32 noundef 3, ptr noundef %0) #5
  %83 = load ptr, ptr getelementptr inbounds nuw (i8, ptr @signals, i64 48), align 16, !tbaa !11
  %84 = load i32, ptr getelementptr inbounds nuw (i8, ptr @signals, i64 56), align 8, !tbaa !4
  %85 = sext i32 %84 to i64
  %86 = getelementptr inbounds ptr, ptr %83, i64 %85
  store ptr %82, ptr %86, align 8, !tbaa !12
  %87 = icmp eq ptr %82, inttoptr (i64 -1 to ptr)
  br i1 %87, label %sigchain_push.exit22, label %88

88:                                               ; preds = %81
  %89 = add nsw i32 %84, 1
  store i32 %89, ptr getelementptr inbounds nuw (i8, ptr @signals, i64 56), align 8, !tbaa !4
  br label %sigchain_push.exit22

sigchain_push.exit22:                             ; preds = %81, %88
  %90 = load i32, ptr getelementptr inbounds nuw (i8, ptr @signals, i64 216), align 8, !tbaa !4
  %91 = load i32, ptr getelementptr inbounds nuw (i8, ptr @signals, i64 220), align 4, !tbaa !10
  %.not.i23 = icmp slt i32 %90, %91
  br i1 %.not.i23, label %103, label %92

92:                                               ; preds = %sigchain_push.exit22
  %93 = add nsw i32 %90, 1
  %94 = mul i32 %91, 3
  %95 = add i32 %94, 48
  %96 = sdiv i32 %95, 2
  %.not23.i24 = icmp sgt i32 %96, %90
  %..i25 = select i1 %.not23.i24, i32 %96, i32 %93
  store i32 %..i25, ptr getelementptr inbounds nuw (i8, ptr @signals, i64 220), align 4, !tbaa !10
  %97 = sext i32 %..i25 to i64
  %98 = icmp slt i32 %..i25, 0
  br i1 %98, label %99, label %st_mult.exit.i26

99:                                               ; preds = %92
  tail call void (ptr, ...) @die(ptr noundef nonnull @.str.2, i64 noundef 8, i64 noundef range(i64 -2147483648, 2147483648) %97) #4
  unreachable

st_mult.exit.i26:                                 ; preds = %92
  %100 = load ptr, ptr getelementptr inbounds nuw (i8, ptr @signals, i64 208), align 16, !tbaa !11
  %101 = shl nuw nsw i64 %97, 3
  %102 = tail call ptr @xrealloc(ptr noundef %100, i64 noundef %101) #5
  store ptr %102, ptr getelementptr inbounds nuw (i8, ptr @signals, i64 208), align 16, !tbaa !11
  br label %103

103:                                              ; preds = %st_mult.exit.i26, %sigchain_push.exit22
  %104 = tail call ptr @signal(i32 noundef 13, ptr noundef %0) #5
  %105 = load ptr, ptr getelementptr inbounds nuw (i8, ptr @signals, i64 208), align 16, !tbaa !11
  %106 = load i32, ptr getelementptr inbounds nuw (i8, ptr @signals, i64 216), align 8, !tbaa !4
  %107 = sext i32 %106 to i64
  %108 = getelementptr inbounds ptr, ptr %105, i64 %107
  store ptr %104, ptr %108, align 8, !tbaa !12
  %109 = icmp eq ptr %104, inttoptr (i64 -1 to ptr)
  br i1 %109, label %sigchain_push.exit28, label %110

110:                                              ; preds = %103
  %111 = add nsw i32 %106, 1
  store i32 %111, ptr getelementptr inbounds nuw (i8, ptr @signals, i64 216), align 8, !tbaa !4
  br label %sigchain_push.exit28

sigchain_push.exit28:                             ; preds = %103, %110
  ret void
}